; Function Attrs: mustprogress uwtable
define internal fastcc void @_ZN9grpc_core12_GLOBAL__N_115MakeStreamErrorEN4absl12lts_202407226StatusE(ptr dead_on_unwind noalias writable align 8 %0, ptr noundef nonnull captures(none) %1) unnamed_addr #3 personality ptr @__gxx_personality_v0 {
  %3 = alloca %"class.absl::lts_20240722::Status", align 8
  %4 = load i64, ptr %1, align 8, !tbaa !14
  store i64 %4, ptr %3, align 8, !tbaa !14
  store i64 55, ptr %1, align 8, !tbaa !14
  invoke void @_Z18grpc_error_set_intN4absl12lts_202407226StatusEN9grpc_core17StatusIntPropertyEl(ptr dead_on_unwind writable sret(%"class.absl::lts_20240722::Status") align 8 %0, ptr noundef nonnull %3, i32 noundef 1, i64 noundef 0)
          to label %5 unwind label %13

5:                                                ; preds = %2
  %6 = load i64, ptr %3, align 8, !tbaa !14
  %7 = and i64 %6, 1
  %.not.i.i = icmp eq i64 %7, 0
  br i1 %.not.i.i, label %8, label %_ZN4absl12lts_202407226StatusD2Ev.exit

8:                                                ; preds = %5
  %9 = inttoptr i64 %6 to ptr
  invoke void @_ZNK4absl12lts_2024072215status_internal9StatusRep5UnrefEv(ptr noundef nonnull align 8 dereferenceable(48) %9)
          to label %_ZN4absl12lts_202407226StatusD2Ev.exit unwind label %10

10:                                               ; preds = %8
  %11 = landingpad { ptr, i32 }
          catch ptr null
  %12 = extractvalue { ptr, i32 } %11, 0
  call void @__clang_call_terminate(ptr %12) #22
  unreachable

_ZN4absl12lts_202407226StatusD2Ev.exit:           ; preds = %5, %8
  ret void

13:                                               ; preds = %2
  %14 = landingpad { ptr, i32 }
          cleanup
  call void @_ZN4absl12lts_202407226StatusD2Ev(ptr noundef nonnull align 8 dereferenceable(8) %3) #19
  resume { ptr, i32 } %14
}